target datalayout = "e-m:e-p270:32:32-p271:32:32-p272:64:64-i64:64-i128:128-f80:128-n8:16:32:64-S128"
target triple = "x86_64-pc-linux-gnu"

%struct.ASN1_ITEM_st = type { i8, i64, ptr, i64, ptr, i64, ptr }
%struct.ASN1_PRIMITIVE_FUNCS_st = type { ptr, i64, ptr, ptr, ptr, ptr, ptr, ptr }
%struct.asn1_string_st = type { i32, i32, ptr, i64 }
%struct.asn1_type_st = type { i32, %union.anon }
%union.anon = type { ptr }
%struct.asn1_object_st = type { ptr, ptr, i32, i32, ptr, i32 }

; Function Attrs: nounwind uwtable
define internal i32 @asn1_ex_i2c(ptr noundef %0, ptr noundef %1, ptr noundef %2, ptr noundef %3) #0 {
  %5 = alloca i32, align 4
  %6 = alloca ptr, align 8
  %7 = alloca ptr, align 8
  %8 = alloca ptr, align 8
  %9 = alloca ptr, align 8
  %10 = alloca ptr, align 8
  %11 = alloca ptr, align 8
  %12 = alloca ptr, align 8
  %13 = alloca i32, align 4
  %14 = alloca ptr, align 8
  %15 = alloca i8, align 1
  %16 = alloca i32, align 4
  %17 = alloca ptr, align 8
  %18 = alloca i32, align 4
  %19 = alloca ptr, align 8
  store ptr %0, ptr %6, align 8, !tbaa !16
  store ptr %1, ptr %7, align 8, !tbaa !14
  store ptr %2, ptr %8, align 8, !tbaa !56
  store ptr %3, ptr %9, align 8, !tbaa !10
  call void @llvm.lifetime.start.p0(i64 8, ptr %10) #6
  store ptr null, ptr %10, align 8, !tbaa !56
  call void @llvm.lifetime.start.p0(i64 8, ptr %11) #6
  call void @llvm.lifetime.start.p0(i64 8, ptr %12) #6
  call void @llvm.lifetime.start.p0(i64 4, ptr %13) #6
  call void @llvm.lifetime.start.p0(i64 8, ptr %14) #6
  call void @llvm.lifetime.start.p0(i64 1, ptr %15) #6
  call void @llvm.lifetime.start.p0(i64 4, ptr %16) #6
  call void @llvm.lifetime.start.p0(i64 8, ptr %17) #6
  %20 = load ptr, ptr %9, align 8, !tbaa !10
  %21 = getelementptr inbounds nuw %struct.ASN1_ITEM_st, ptr %20, i32 0, i32 4
  %22 = load ptr, ptr %21, align 8, !tbaa !20
  store ptr %22, ptr %17, align 8, !tbaa !58
  %23 = load ptr, ptr %17, align 8, !tbaa !58
  %24 = icmp ne ptr %23, null
  br i1 %24, label %25, label %39

25:                                               ; preds = %4
  %26 = load ptr, ptr %17, align 8, !tbaa !58
  %27 = getelementptr inbounds nuw %struct.ASN1_PRIMITIVE_FUNCS_st, ptr %26, i32 0, i32 6
  %28 = load ptr, ptr %27, align 8, !tbaa !60
  %29 = icmp ne ptr %28, null
  br i1 %29, label %30, label %39

30:                                               ; preds = %25
  %31 = load ptr, ptr %17, align 8, !tbaa !58
  %32 = getelementptr inbounds nuw %struct.ASN1_PRIMITIVE_FUNCS_st, ptr %31, i32 0, i32 6
  %33 = load ptr, ptr %32, align 8, !tbaa !60
  %34 = load ptr, ptr %6, align 8, !tbaa !16
  %35 = load ptr, ptr %7, align 8, !tbaa !14
  %36 = load ptr, ptr %8, align 8, !tbaa !56
  %37 = load ptr, ptr %9, align 8, !tbaa !10
  %38 = call i32 %33(ptr noundef %34, ptr noundef %35, ptr noundef %36, ptr noundef %37)
  store i32 %38, ptr %5, align 4
  store i32 1, ptr %18, align 4
  br label %208

39:                                               ; preds = %25, %4
  %40 = load ptr, ptr %9, align 8, !tbaa !10
  %41 = getelementptr inbounds nuw %struct.ASN1_ITEM_st, ptr %40, i32 0, i32 0
  %42 = load i8, ptr %41, align 8, !tbaa !26
  %43 = sext i8 %42 to i32
  %44 = icmp ne i32 %43, 0
  br i1 %44, label %50, label %45

45:                                               ; preds = %39
  %46 = load ptr, ptr %9, align 8, !tbaa !10
  %47 = getelementptr inbounds nuw %struct.ASN1_ITEM_st, ptr %46, i32 0, i32 1
  %48 = load i64, ptr %47, align 8, !tbaa !47
  %49 = icmp ne i64 %48, 1
  br i1 %49, label %50, label %56

50:                                               ; preds = %45, %39
  %51 = load ptr, ptr %6, align 8, !tbaa !16
  %52 = load ptr, ptr %51, align 8, !tbaa !3
  %53 = icmp eq ptr %52, null
  br i1 %53, label %54, label %55

54:                                               ; preds = %50
  store i32 -1, ptr %5, align 4
  store i32 1, ptr %18, align 4
  br label %208

55:                                               ; preds = %50
  br label %56

56:                                               ; preds = %55, %45
  %57 = load ptr, ptr %9, align 8, !tbaa !10
  %58 = getelementptr inbounds nuw %struct.ASN1_ITEM_st, ptr %57, i32 0, i32 0
  %59 = load i8, ptr %58, align 8, !tbaa !26
  %60 = sext i8 %59 to i32
  %61 = icmp eq i32 %60, 5
  br i1 %61, label %62, label %70

62:                                               ; preds = %56
  %63 = load ptr, ptr %6, align 8, !tbaa !16
  %64 = load ptr, ptr %63, align 8, !tbaa !3
  store ptr %64, ptr %11, align 8, !tbaa !62
  %65 = load ptr, ptr %11, align 8, !tbaa !62
  %66 = getelementptr inbounds nuw %struct.asn1_string_st, ptr %65, i32 0, i32 1
  %67 = load i32, ptr %66, align 4, !tbaa !64
  store i32 %67, ptr %13, align 4, !tbaa !12
  %68 = load i32, ptr %13, align 4, !tbaa !12
  %69 = load ptr, ptr %8, align 8, !tbaa !56
  store i32 %68, ptr %69, align 4, !tbaa !12
  br label %89

70:                                               ; preds = %56
  %71 = load ptr, ptr %9, align 8, !tbaa !10
  %72 = getelementptr inbounds nuw %struct.ASN1_ITEM_st, ptr %71, i32 0, i32 1
  %73 = load i64, ptr %72, align 8, !tbaa !47
  %74 = icmp eq i64 %73, -4
  br i1 %74, label %75, label %85

75:                                               ; preds = %70
  call void @llvm.lifetime.start.p0(i64 8, ptr %19) #6
  %76 = load ptr, ptr %6, align 8, !tbaa !16
  %77 = load ptr, ptr %76, align 8, !tbaa !3
  store ptr %77, ptr %19, align 8, !tbaa !66
  %78 = load ptr, ptr %19, align 8, !tbaa !66
  %79 = getelementptr inbounds nuw %struct.asn1_type_st, ptr %78, i32 0, i32 0
  %80 = load i32, ptr %79, align 8, !tbaa !68
  store i32 %80, ptr %13, align 4, !tbaa !12
  %81 = load i32, ptr %13, align 4, !tbaa !12
  %82 = load ptr, ptr %8, align 8, !tbaa !56
  store i32 %81, ptr %82, align 4, !tbaa !12
  %83 = load ptr, ptr %19, align 8, !tbaa !66
  %84 = getelementptr inbounds nuw %struct.asn1_type_st, ptr %83, i32 0, i32 1
  store ptr %84, ptr %6, align 8, !tbaa !16
  call void @llvm.lifetime.end.p0(i64 8, ptr %19) #6
  br label %88

85:                                               ; preds = %70
  %86 = load ptr, ptr %8, align 8, !tbaa !56
  %87 = load i32, ptr %86, align 4, !tbaa !12
  store i32 %87, ptr %13, align 4, !tbaa !12
  br label %88

88:                                               ; preds = %85, %75
  br label %89

89:                                               ; preds = %88, %62
  %90 = load i32, ptr %13, align 4, !tbaa !12
  switch i32 %90, label %165 [
    i32 6, label %91
    i32 5, label %107
    i32 1, label %108
    i32 3, label %144
    i32 2, label %154
    i32 10, label %154
    i32 4, label %164
    i32 18, label %164
    i32 19, label %164
    i32 20, label %164
    i32 21, label %164
    i32 22, label %164
    i32 23, label %164
    i32 24, label %164
    i32 25, label %164
    i32 26, label %164
    i32 27, label %164
    i32 28, label %164
    i32 30, label %164
    i32 12, label %164
    i32 16, label %164
    i32 17, label %164
  ]

91:                                               ; preds = %89
  %92 = load ptr, ptr %6, align 8, !tbaa !16
  %93 = load ptr, ptr %92, align 8, !tbaa !3
  store ptr %93, ptr %12, align 8, !tbaa !70
  %94 = load ptr, ptr %12, align 8, !tbaa !70
  %95 = getelementptr inbounds nuw %struct.asn1_object_st, ptr %94, i32 0, i32 4
  %96 = load ptr, ptr %95, align 8, !tbaa !72
  store ptr %96, ptr %14, align 8, !tbaa !14
  %97 = load ptr, ptr %12, align 8, !tbaa !70
  %98 = getelementptr inbounds nuw %struct.asn1_object_st, ptr %97, i32 0, i32 3
  %99 = load i32, ptr %98, align 4, !tbaa !74
  store i32 %99, ptr %16, align 4, !tbaa !12
  %100 = load ptr, ptr %14, align 8, !tbaa !14
  %101 = icmp eq ptr %100, null
  br i1 %101, label %105, label %102

102:                                              ; preds = %91
  %103 = load i32, ptr %16, align 4, !tbaa !12
  %104 = icmp eq i32 %103, 0
  br i1 %104, label %105, label %106

105:                                              ; preds = %102, %91
  store i32 -1, ptr %5, align 4
  store i32 1, ptr %18, align 4
  br label %208

106:                                              ; preds = %102
  br label %195

107:                                              ; preds = %89
  store ptr null, ptr %14, align 8, !tbaa !14
  store i32 0, ptr %16, align 4, !tbaa !12
  br label %195

108:                                              ; preds = %89
  %109 = load ptr, ptr %6, align 8, !tbaa !16
  store ptr %109, ptr %10, align 8, !tbaa !56
  %110 = load ptr, ptr %10, align 8, !tbaa !56
  %111 = load i32, ptr %110, align 4, !tbaa !12
  %112 = icmp eq i32 %111, -1
  br i1 %112, label %113, label %114

113:                                              ; preds = %108
  store i32 -1, ptr %5, align 4
  store i32 1, ptr %18, align 4
  br label %208

114:                                              ; preds = %108
  %115 = load ptr, ptr %9, align 8, !tbaa !10
  %116 = getelementptr inbounds nuw %struct.ASN1_ITEM_st, ptr %115, i32 0, i32 1
  %117 = load i64, ptr %116, align 8, !tbaa !47
  %118 = icmp ne i64 %117, -4
  br i1 %118, label %119, label %140

119:                                              ; preds = %114
  %120 = load ptr, ptr %10, align 8, !tbaa !56
  %121 = load i32, ptr %120, align 4, !tbaa !12
  %122 = icmp ne i32 %121, 0
  br i1 %122, label %123, label %129

123:                                              ; preds = %119
  %124 = load ptr, ptr %9, align 8, !tbaa !10
  %125 = getelementptr inbounds nuw %struct.ASN1_ITEM_st, ptr %124, i32 0, i32 5
  %126 = load i64, ptr %125, align 8, !tbaa !75
  %127 = icmp sgt i64 %126, 0
  br i1 %127, label %128, label %129

128:                                              ; preds = %123
  store i32 -1, ptr %5, align 4
  store i32 1, ptr %18, align 4
  br label %208

129:                                              ; preds = %123, %119
  %130 = load ptr, ptr %10, align 8, !tbaa !56
  %131 = load i32, ptr %130, align 4, !tbaa !12
  %132 = icmp ne i32 %131, 0
  br i1 %132, label %139, label %133

133:                                              ; preds = %129
  %134 = load ptr, ptr %9, align 8, !tbaa !10
  %135 = getelementptr inbounds nuw %struct.ASN1_ITEM_st, ptr %134, i32 0, i32 5
  %136 = load i64, ptr %135, align 8, !tbaa !75
  %137 = icmp ne i64 %136, 0
  br i1 %137, label %139, label %138

138:                                              ; preds = %133
  store i32 -1, ptr %5, align 4
  store i32 1, ptr %18, align 4
  br label %208

139:                                              ; preds = %133, %129
  br label %140

140:                                              ; preds = %139, %114
  %141 = load ptr, ptr %10, align 8, !tbaa !56
  %142 = load i32, ptr %141, align 4, !tbaa !12
  %143 = trunc i32 %142 to i8
  store i8 %143, ptr %15, align 1, !tbaa !76
  store ptr %15, ptr %14, align 8, !tbaa !14
  store i32 1, ptr %16, align 4, !tbaa !12
  br label %195

144:                                              ; preds = %89
  %145 = load ptr, ptr %6, align 8, !tbaa !16
  %146 = load ptr, ptr %145, align 8, !tbaa !3
  %147 = load ptr, ptr %7, align 8, !tbaa !14
  %148 = icmp ne ptr %147, null
  br i1 %148, label %149, label %150

149:                                              ; preds = %144
  br label %151

150:                                              ; preds = %144
  br label %151

151:                                              ; preds = %150, %149
  %152 = phi ptr [ %7, %149 ], [ null, %150 ]
  %153 = call i32 @ossl_i2c_ASN1_BIT_STRING(ptr noundef %146, ptr noundef %152)
  store i32 %153, ptr %5, align 4
  store i32 1, ptr %18, align 4
  br label %208

154:                                              ; preds = %89, %89
  %155 = load ptr, ptr %6, align 8, !tbaa !16
  %156 = load ptr, ptr %155, align 8, !tbaa !3
  %157 = load ptr, ptr %7, align 8, !tbaa !14
  %158 = icmp ne ptr %157, null
  br i1 %158, label %159, label %160

159:                                              ; preds = %154
  br label %161

160:                                              ; preds = %154
  br label %161

161:                                              ; preds = %160, %159
  %162 = phi ptr [ %7, %159 ], [ null, %160 ]
  %163 = call i32 @ossl_i2c_ASN1_INTEGER(ptr noundef %156, ptr noundef %162)
  store i32 %163, ptr %5, align 4
  store i32 1, ptr %18, align 4
  br label %208

164:                                              ; preds = %89, %89, %89, %89, %89, %89, %89, %89, %89, %89, %89, %89, %89, %89, %89, %89
  br label %165

165:                                              ; preds = %89, %164
  %166 = load ptr, ptr %6, align 8, !tbaa !16
  %167 = load ptr, ptr %166, align 8, !tbaa !3
  store ptr %167, ptr %11, align 8, !tbaa !62
  %168 = load ptr, ptr %9, align 8, !tbaa !10
  %169 = getelementptr inbounds nuw %struct.ASN1_ITEM_st, ptr %168, i32 0, i32 5
  %170 = load i64, ptr %169, align 8, !tbaa !75
  %171 = icmp eq i64 %170, 2048
  br i1 %171, label %172, label %188

172:                                              ; preds = %165
  %173 = load ptr, ptr %11, align 8, !tbaa !62
  %174 = getelementptr inbounds nuw %struct.asn1_string_st, ptr %173, i32 0, i32 3
  %175 = load i64, ptr %174, align 8, !tbaa !77
  %176 = and i64 %175, 16
  %177 = icmp ne i64 %176, 0
  br i1 %177, label %178, label %188

178:                                              ; preds = %172
  %179 = load ptr, ptr %7, align 8, !tbaa !14
  %180 = icmp ne ptr %179, null
  br i1 %180, label %181, label %187

181:                                              ; preds = %178
  %182 = load ptr, ptr %7, align 8, !tbaa !14
  %183 = load ptr, ptr %11, align 8, !tbaa !62
  %184 = getelementptr inbounds nuw %struct.asn1_string_st, ptr %183, i32 0, i32 2
  store ptr %182, ptr %184, align 8, !tbaa !78
  %185 = load ptr, ptr %11, align 8, !tbaa !62
  %186 = getelementptr inbounds nuw %struct.asn1_string_st, ptr %185, i32 0, i32 0
  store i32 0, ptr %186, align 8, !tbaa !79
  br label %187

187:                                              ; preds = %181, %178
  store i32 -2, ptr %5, align 4
  store i32 1, ptr %18, align 4
  br label %208

188:                                              ; preds = %172, %165
  %189 = load ptr, ptr %11, align 8, !tbaa !62
  %190 = getelementptr inbounds nuw %struct.asn1_string_st, ptr %189, i32 0, i32 2
  %191 = load ptr, ptr %190, align 8, !tbaa !78
  store ptr %191, ptr %14, align 8, !tbaa !14
  %192 = load ptr, ptr %11, align 8, !tbaa !62
  %193 = getelementptr inbounds nuw %struct.asn1_string_st, ptr %192, i32 0, i32 0
  %194 = load i32, ptr %193, align 8, !tbaa !79
  store i32 %194, ptr %16, align 4, !tbaa !12
  br label %195

195:                                              ; preds = %188, %140, %107, %106
  %196 = load ptr, ptr %7, align 8, !tbaa !14
  %197 = icmp ne ptr %196, null
  br i1 %197, label %198, label %206

198:                                              ; preds = %195
  %199 = load i32, ptr %16, align 4, !tbaa !12
  %200 = icmp ne i32 %199, 0
  br i1 %200, label %201, label %206

201:                                              ; preds = %198
  %202 = load ptr, ptr %7, align 8, !tbaa !14
  %203 = load ptr, ptr %14, align 8, !tbaa !14
  %204 = load i32, ptr %16, align 4, !tbaa !12
  %205 = sext i32 %204 to i64
  call void @llvm.memcpy.p0.p0.i64(ptr align 1 %202, ptr align 1 %203, i64 %205, i1 false)
  br label %206

206:                                              ; preds = %201, %198, %195
  %207 = load i32, ptr %16, align 4, !tbaa !12
  store i32 %207, ptr %5, align 4
  store i32 1, ptr %18, align 4
  br label %208

208:                                              ; preds = %206, %187, %161, %151, %138, %128, %113, %105, %54, %30
  call void @llvm.lifetime.end.p0(i64 8, ptr %17) #6
  call void @llvm.lifetime.end.p0(i64 4, ptr %16) #6
  call void @llvm.lifetime.end.p0(i64 1, ptr %15) #6
  call void @llvm.lifetime.end.p0(i64 8, ptr %14) #6
  call void @llvm.lifetime.end.p0(i64 4, ptr %13) #6
  call void @llvm.lifetime.end.p0(i64 8, ptr %12) #6
  call void @llvm.lifetime.end.p0(i64 8, ptr %11) #6
  call void @llvm.lifetime.end.p0(i64 8, ptr %10) #6
  %209 = load i32, ptr %5, align 4
  ret i32 %209
}