; Function Attrs: nounwind uwtable
define internal fastcc i32 @asn1_ex_i2c(ptr noundef %0, ptr noundef %1, ptr noundef nonnull %2, ptr noundef %3) unnamed_addr #0 {
  %5 = alloca ptr, align 8
  %6 = alloca i8, align 1
  store ptr %1, ptr %5, align 8, !tbaa !8
  call void @llvm.lifetime.start.p0(i64 1, ptr nonnull %6) #8
  %7 = getelementptr inbounds nuw i8, ptr %3, i64 32
  %8 = load ptr, ptr %7, align 8, !tbaa !10
  %.not = icmp eq ptr %8, null
  br i1 %.not, label %14, label %9

9:                                                ; preds = %4
  %10 = getelementptr inbounds nuw i8, ptr %8, i64 48
  %11 = load ptr, ptr %10, align 8, !tbaa !41
  %.not64 = icmp eq ptr %11, null
  br i1 %.not64, label %14, label %12

12:                                               ; preds = %9
  %13 = tail call i32 %11(ptr noundef %0, ptr noundef %1, ptr noundef nonnull %2, ptr noundef nonnull %3) #8
  br label %.thread78

14:                                               ; preds = %9, %4
  %15 = load i8, ptr %3, align 8, !tbaa !14
  %.not65 = icmp eq i8 %15, 0
  br i1 %.not65, label %16, label %19

16:                                               ; preds = %14
  %17 = getelementptr inbounds nuw i8, ptr %3, i64 8
  %18 = load i64, ptr %17, align 8, !tbaa !40
  %.not66 = icmp eq i64 %18, 1
  br i1 %.not66, label %.thread.thread, label %.thread75

19:                                               ; preds = %14
  %20 = load ptr, ptr %0, align 8, !tbaa !3
  %21 = icmp eq ptr %20, null
  br i1 %21, label %.thread78, label %24

.thread75:                                        ; preds = %16
  %22 = load ptr, ptr %0, align 8, !tbaa !3
  %23 = icmp eq ptr %22, null
  br i1 %23, label %.thread78, label %.thread

24:                                               ; preds = %19
  %25 = icmp eq i8 %15, 5
  br i1 %25, label %26, label %..thread_crit_edge

..thread_crit_edge:                               ; preds = %24
  %.phi.trans.insert = getelementptr inbounds nuw i8, ptr %3, i64 8
  %.pre = load i64, ptr %.phi.trans.insert, align 8, !tbaa !40
  br label %.thread

26:                                               ; preds = %24
  %27 = getelementptr inbounds nuw i8, ptr %20, i64 4
  %28 = load i32, ptr %27, align 4, !tbaa !43
  store i32 %28, ptr %2, align 4, !tbaa !23
  br label %36

.thread:                                          ; preds = %..thread_crit_edge, %.thread75
  %29 = phi i64 [ %.pre, %..thread_crit_edge ], [ %18, %.thread75 ]
  %30 = icmp eq i64 %29, -4
  br i1 %30, label %31, label %.thread.thread

31:                                               ; preds = %.thread
  %32 = load ptr, ptr %0, align 8, !tbaa !3
  %33 = load i32, ptr %32, align 8, !tbaa !45
  store i32 %33, ptr %2, align 4, !tbaa !23
  %34 = getelementptr inbounds nuw i8, ptr %32, i64 8
  br label %36

.thread.thread:                                   ; preds = %16, %.thread
  %35 = load i32, ptr %2, align 4, !tbaa !23
  br label %36

36:                                               ; preds = %31, %.thread.thread, %26
  %.056 = phi i32 [ %28, %26 ], [ %33, %31 ], [ %35, %.thread.thread ]
  %.053 = phi ptr [ %0, %26 ], [ %34, %31 ], [ %0, %.thread.thread ]
  switch i32 %.056, label %65 [
    i32 6, label %37
    i32 5, label %.thread78
    i32 1, label %45
    i32 3, label %59
    i32 2, label %62
    i32 10, label %62
  ]

37:                                               ; preds = %36
  %38 = load ptr, ptr %.053, align 8, !tbaa !3
  %39 = getelementptr inbounds nuw i8, ptr %38, i64 24
  %40 = load ptr, ptr %39, align 8, !tbaa !47
  %41 = getelementptr inbounds nuw i8, ptr %38, i64 20
  %42 = load i32, ptr %41, align 4, !tbaa !49
  %43 = icmp eq ptr %40, null
  %44 = icmp eq i32 %42, 0
  %or.cond = select i1 %43, i1 true, i1 %44
  br i1 %or.cond, label %.thread78, label %81

45:                                               ; preds = %36
  %46 = load i32, ptr %.053, align 4, !tbaa !23
  %47 = icmp eq i32 %46, -1
  br i1 %47, label %.thread78, label %48

48:                                               ; preds = %45
  %49 = getelementptr inbounds nuw i8, ptr %3, i64 8
  %50 = load i64, ptr %49, align 8, !tbaa !40
  %.not69 = icmp eq i64 %50, -4
  br i1 %.not69, label %57, label %51

51:                                               ; preds = %48
  %.not70 = icmp eq i32 %46, 0
  %52 = getelementptr inbounds nuw i8, ptr %3, i64 40
  %53 = load i64, ptr %52, align 8, !tbaa !50
  br i1 %.not70, label %56, label %54

54:                                               ; preds = %51
  %55 = icmp sgt i64 %53, 0
  br i1 %55, label %.thread78, label %57

56:                                               ; preds = %51
  %.not72 = icmp eq i64 %53, 0
  br i1 %.not72, label %.thread78, label %57

57:                                               ; preds = %54, %56, %48
  %58 = trunc i32 %46 to i8
  store i8 %58, ptr %6, align 1, !tbaa !51
  br label %81

59:                                               ; preds = %36
  %60 = load ptr, ptr %.053, align 8, !tbaa !3
  %.not68 = icmp eq ptr %1, null
  %. = select i1 %.not68, ptr null, ptr %5
  %61 = call i32 @ossl_i2c_ASN1_BIT_STRING(ptr noundef %60, ptr noundef %.) #8
  br label %.thread78

62:                                               ; preds = %36, %36
  %63 = load ptr, ptr %.053, align 8, !tbaa !3
  %.not67 = icmp eq ptr %1, null
  %.2 = select i1 %.not67, ptr null, ptr %5
  %64 = call i32 @ossl_i2c_ASN1_INTEGER(ptr noundef %63, ptr noundef %.2) #8
  br label %.thread78

65:                                               ; preds = %36
  %66 = load ptr, ptr %.053, align 8, !tbaa !3
  %67 = getelementptr inbounds nuw i8, ptr %3, i64 40
  %68 = load i64, ptr %67, align 8, !tbaa !50
  %69 = icmp eq i64 %68, 2048
  br i1 %69, label %70, label %77

70:                                               ; preds = %65
  %71 = getelementptr inbounds nuw i8, ptr %66, i64 16
  %72 = load i64, ptr %71, align 8, !tbaa !52
  %73 = and i64 %72, 16
  %.not73 = icmp eq i64 %73, 0
  br i1 %.not73, label %77, label %74

74:                                               ; preds = %70
  %.not74 = icmp eq ptr %1, null
  br i1 %.not74, label %.thread78, label %75

75:                                               ; preds = %74
  %76 = getelementptr inbounds nuw i8, ptr %66, i64 8
  store ptr %1, ptr %76, align 8, !tbaa !53
  store i32 0, ptr %66, align 8, !tbaa !54
  br label %.thread78

77:                                               ; preds = %70, %65
  %78 = getelementptr inbounds nuw i8, ptr %66, i64 8
  %79 = load ptr, ptr %78, align 8, !tbaa !53
  %80 = load i32, ptr %66, align 8, !tbaa !54
  br label %81

81:                                               ; preds = %37, %77, %57
  %.055 = phi ptr [ %79, %77 ], [ %6, %57 ], [ %40, %37 ]
  %.054 = phi i32 [ %80, %77 ], [ 1, %57 ], [ %42, %37 ]
  %82 = icmp ne ptr %1, null
  %83 = icmp ne i32 %.054, 0
  %or.cond4 = select i1 %82, i1 %83, i1 false
  br i1 %or.cond4, label %84, label %.thread78

84:                                               ; preds = %81
  %85 = sext i32 %.054 to i64
  call void @llvm.memcpy.p0.p0.i64(ptr nonnull align 1 %1, ptr align 1 %.055, i64 %85, i1 false)
  br label %.thread78

.thread78:                                        ; preds = %36, %.thread75, %81, %84, %74, %75, %56, %54, %45, %37, %19, %62, %59, %12
  %.0 = phi i32 [ %13, %12 ], [ %64, %62 ], [ %61, %59 ], [ -1, %19 ], [ -1, %37 ], [ -1, %45 ], [ -1, %54 ], [ -1, %56 ], [ -2, %75 ], [ -2, %74 ], [ %.054, %84 ], [ %.054, %81 ], [ -1, %.thread75 ], [ 0, %36 ]
  call void @llvm.lifetime.end.p0(i64 1, ptr nonnull %6) #8
  ret i32 %.0
}